target datalayout = "e-m:e-p270:32:32-p271:32:32-p272:64:64-i64:64-i128:128-f80:128-n8:16:32:64-S128"
target triple = "x86_64-pc-linux-gnu"

%struct.SUNMemoryHelper_ = type { ptr, ptr, ptr }
%struct.SUNMemoryHelper_Ops_ = type { ptr, ptr, ptr, ptr, ptr, ptr, ptr }

; Function Attrs: nounwind uwtable
define i32 @SUNMemoryHelper_CopyOps(ptr noundef %0, ptr noundef %1) #0 {
  %3 = alloca ptr, align 8
  %4 = alloca ptr, align 8
  store ptr %0, ptr %3, align 8, !tbaa !14
  store ptr %1, ptr %4, align 8, !tbaa !14
  %5 = load ptr, ptr %4, align 8, !tbaa !14
  %6 = getelementptr inbounds nuw %struct.SUNMemoryHelper_, ptr %5, i32 0, i32 1
  %7 = load ptr, ptr %6, align 8, !tbaa !16
  %8 = load ptr, ptr %3, align 8, !tbaa !14
  %9 = getelementptr inbounds nuw %struct.SUNMemoryHelper_, ptr %8, i32 0, i32 1
  %10 = load ptr, ptr %9, align 8, !tbaa !16
  call void @llvm.memcpy.p0.p0.i64(ptr align 8 %7, ptr align 8 %10, i64 56, i1 false)
  ret i32 0
}

; Function Attrs: nounwind uwtable
define ptr @SUNMemoryHelper_NewEmpty(ptr noundef %0) #0 {
  %2 = alloca ptr, align 8
  %3 = alloca ptr, align 8
  %4 = alloca ptr, align 8
  %5 = alloca ptr, align 8
  store ptr %0, ptr %3, align 8, !tbaa !3
  %6 = load ptr, ptr %3, align 8, !tbaa !3
  %7 = icmp eq ptr %6, null
  br i1 %7, label %8, label %9

8:                                                ; preds = %1
  store ptr null, ptr %2, align 8
  br label %24

9:                                                ; preds = %1
  call void @llvm.lifetime.start.p0(i64 8, ptr %4) #6
  %10 = load ptr, ptr %3, align 8, !tbaa !3
  store ptr %10, ptr %4, align 8, !tbaa !3
  call void @llvm.lifetime.start.p0(i64 8, ptr %5) #6
  store ptr null, ptr %5, align 8, !tbaa !14
  %11 = call noalias ptr @malloc(i64 noundef 24) #7
  store ptr %11, ptr %5, align 8, !tbaa !14
  %12 = call noalias ptr @malloc(i64 noundef 56) #7
  %13 = load ptr, ptr %5, align 8, !tbaa !14
  %14 = getelementptr inbounds nuw %struct.SUNMemoryHelper_, ptr %13, i32 0, i32 1
  store ptr %12, ptr %14, align 8, !tbaa !16
  %15 = load ptr, ptr %5, align 8, !tbaa !14
  %16 = getelementptr inbounds nuw %struct.SUNMemoryHelper_, ptr %15, i32 0, i32 1
  %17 = load ptr, ptr %16, align 8, !tbaa !16
  call void @llvm.memset.p0.i64(ptr align 8 %17, i8 0, i64 56, i1 false)
  %18 = load ptr, ptr %5, align 8, !tbaa !14
  %19 = getelementptr inbounds nuw %struct.SUNMemoryHelper_, ptr %18, i32 0, i32 0
  store ptr null, ptr %19, align 8, !tbaa !19
  %20 = load ptr, ptr %3, align 8, !tbaa !3
  %21 = load ptr, ptr %5, align 8, !tbaa !14
  %22 = getelementptr inbounds nuw %struct.SUNMemoryHelper_, ptr %21, i32 0, i32 2
  store ptr %20, ptr %22, align 8, !tbaa !20
  %23 = load ptr, ptr %5, align 8, !tbaa !14
  store ptr %23, ptr %2, align 8
  call void @llvm.lifetime.end.p0(i64 8, ptr %5) #6
  call void @llvm.lifetime.end.p0(i64 8, ptr %4) #6
  br label %24

24:                                               ; preds = %9, %8
  %25 = load ptr, ptr %2, align 8
  ret ptr %25
}

; Function Attrs: nounwind uwtable
define ptr @SUNMemoryHelper_Clone(ptr noundef %0) #0 {
  %2 = alloca ptr, align 8
  %3 = alloca ptr, align 8
  %4 = alloca ptr, align 8
  %5 = alloca i32, align 4
  %6 = alloca ptr, align 8
  store ptr %0, ptr %3, align 8, !tbaa !14
  call void @llvm.lifetime.start.p0(i64 8, ptr %4) #6
  %7 = load ptr, ptr %3, align 8, !tbaa !14
  %8 = getelementptr inbounds nuw %struct.SUNMemoryHelper_, ptr %7, i32 0, i32 2
  %9 = load ptr, ptr %8, align 8, !tbaa !20
  store ptr %9, ptr %4, align 8, !tbaa !3
  %10 = load ptr, ptr %3, align 8, !tbaa !14
  %11 = getelementptr inbounds nuw %struct.SUNMemoryHelper_, ptr %10, i32 0, i32 1
  %12 = load ptr, ptr %11, align 8, !tbaa !16
  %13 = getelementptr inbounds nuw %struct.SUNMemoryHelper_Ops_, ptr %12, i32 0, i32 5
  %14 = load ptr, ptr %13, align 8, !tbaa !38
  %15 = icmp ne ptr %14, null
  br i1 %15, label %35, label %16

16:                                               ; preds = %1
  %17 = load ptr, ptr %3, align 8, !tbaa !14
  %18 = getelementptr inbounds nuw %struct.SUNMemoryHelper_, ptr %17, i32 0, i32 0
  %19 = load ptr, ptr %18, align 8, !tbaa !19
  %20 = icmp ne ptr %19, null
  br i1 %20, label %21, label %22

21:                                               ; preds = %16
  store ptr null, ptr %2, align 8
  store i32 1, ptr %5, align 4
  br label %43

22:                                               ; preds = %16
  call void @llvm.lifetime.start.p0(i64 8, ptr %6) #6
  %23 = load ptr, ptr %3, align 8, !tbaa !14
  %24 = getelementptr inbounds nuw %struct.SUNMemoryHelper_, ptr %23, i32 0, i32 2
  %25 = load ptr, ptr %24, align 8, !tbaa !20
  %26 = call ptr @SUNMemoryHelper_NewEmpty(ptr noundef %25)
  store ptr %26, ptr %6, align 8, !tbaa !14
  %27 = load ptr, ptr %6, align 8, !tbaa !14
  %28 = icmp ne ptr %27, null
  br i1 %28, label %29, label %33

29:                                               ; preds = %22
  %30 = load ptr, ptr %3, align 8, !tbaa !14
  %31 = load ptr, ptr %6, align 8, !tbaa !14
  %32 = call i32 @SUNMemoryHelper_CopyOps(ptr noundef %30, ptr noundef %31)
  br label %33

33:                                               ; preds = %29, %22
  %34 = load ptr, ptr %6, align 8, !tbaa !14
  store ptr %34, ptr %2, align 8
  store i32 1, ptr %5, align 4
  call void @llvm.lifetime.end.p0(i64 8, ptr %6) #6
  br label %43

35:                                               ; preds = %1
  %36 = load ptr, ptr %3, align 8, !tbaa !14
  %37 = getelementptr inbounds nuw %struct.SUNMemoryHelper_, ptr %36, i32 0, i32 1
  %38 = load ptr, ptr %37, align 8, !tbaa !16
  %39 = getelementptr inbounds nuw %struct.SUNMemoryHelper_Ops_, ptr %38, i32 0, i32 5
  %40 = load ptr, ptr %39, align 8, !tbaa !38
  %41 = load ptr, ptr %3, align 8, !tbaa !14
  %42 = call ptr %40(ptr noundef %41)
  store ptr %42, ptr %2, align 8
  store i32 1, ptr %5, align 4
  br label %43

43:                                               ; preds = %35, %33, %21
  call void @llvm.lifetime.end.p0(i64 8, ptr %4) #6
  %44 = load ptr, ptr %2, align 8
  ret ptr %44
}