; Function Attrs: nounwind uwtable
define ptr @SUNMemoryHelper_Clone(ptr noundef %0) local_unnamed_addr #6 {
  %2 = getelementptr inbounds nuw i8, ptr %0, i64 16
  %3 = getelementptr inbounds nuw i8, ptr %0, i64 8
  %4 = load ptr, ptr %3, align 8, !tbaa !10
  %5 = getelementptr inbounds nuw i8, ptr %4, i64 40
  %6 = load ptr, ptr %5, align 8, !tbaa !26
  %.not = icmp eq ptr %6, null
  br i1 %.not, label %7, label %15

7:                                                ; preds = %1
  %8 = load ptr, ptr %0, align 8, !tbaa !14
  %.not13 = icmp eq ptr %8, null
  br i1 %.not13, label %9, label %SUNMemoryHelper_NewEmpty.exit.thread

9:                                                ; preds = %7
  %10 = load ptr, ptr %2, align 8, !tbaa !15
  %11 = icmp eq ptr %10, null
  br i1 %11, label %SUNMemoryHelper_NewEmpty.exit.thread, label %SUNMemoryHelper_NewEmpty.exit

SUNMemoryHelper_NewEmpty.exit:                    ; preds = %9
  %12 = tail call noalias dereferenceable_or_null(24) ptr @malloc(i64 noundef 24) #9
  %calloc.i = tail call dereferenceable_or_null(56) ptr @calloc(i64 1, i64 56)
  %13 = getelementptr inbounds nuw i8, ptr %12, i64 8
  store ptr %calloc.i, ptr %13, align 8, !tbaa !10
  store ptr null, ptr %12, align 8, !tbaa !14
  %14 = getelementptr inbounds nuw i8, ptr %12, i64 16
  store ptr %10, ptr %14, align 8, !tbaa !15
  tail call void @llvm.memcpy.p0.p0.i64(ptr noundef nonnull align 8 dereferenceable(56) %calloc.i, ptr noundef nonnull align 8 dereferenceable(56) %4, i64 56, i1 false)
  br label %SUNMemoryHelper_NewEmpty.exit.thread

15:                                               ; preds = %1
  %16 = tail call ptr %6(ptr noundef nonnull %0) #10
  br label %SUNMemoryHelper_NewEmpty.exit.thread

SUNMemoryHelper_NewEmpty.exit.thread:             ; preds = %9, %SUNMemoryHelper_NewEmpty.exit, %7, %15
  %.0 = phi ptr [ %16, %15 ], [ null, %7 ], [ %12, %SUNMemoryHelper_NewEmpty.exit ], [ null, %9 ]
  ret ptr %.0
}